	.file	"dwp_test_1.cc"
	.text
.Ltext0:
	.section	.text._Z4f13iv,"axG",@progbits,_Z4f13iv,comdat
	.weak	_Z4f13iv
	.type	_Z4f13iv, @function
_Z4f13iv:
.LFB0:
	.file 1 "dwp_test.h"
	.loc 1 70 0
	.cfi_startproc
	pushq	%rbp
	.cfi_def_cfa_offset 16
	.cfi_offset 6, -16
	movq	%rsp, %rbp
	.cfi_def_cfa_register 6
	.loc 1 70 0
	popq	%rbp
	.cfi_def_cfa 7, 8
	ret
	.cfi_endproc
.LFE0:
	.size	_Z4f13iv, .-_Z4f13iv
	.text
	.align 2
	.globl	_ZN2C19testcase1Ev
	.type	_ZN2C19testcase1Ev, @function
_ZN2C19testcase1Ev:
.LFB1:
	.file 2 "dwp_test_1.cc"
	.loc 2 31 0
	.cfi_startproc
	pushq	%rbp
	.cfi_def_cfa_offset 16
	.cfi_offset 6, -16
	movq	%rsp, %rbp
	.cfi_def_cfa_register 6
	subq	$16, %rsp
	movq	%rdi, -8(%rbp)
	.loc 2 32 0
	movq	-8(%rbp), %rax
	movq	%rax, %rdi
	call	_ZN2C14t1_2Ev
	cmpl	$123, %eax
	sete	%al
	.loc 2 33 0
	leave
	.cfi_def_cfa 7, 8
	ret
	.cfi_endproc
.LFE1:
	.size	_ZN2C19testcase1Ev, .-_ZN2C19testcase1Ev
	.align 2
	.globl	_ZN2C19testcase2Ev
	.type	_ZN2C19testcase2Ev, @function
_ZN2C19testcase2Ev:
.LFB2:
	.loc 2 39 0
	.cfi_startproc
	pushq	%rbp
	.cfi_def_cfa_offset 16
	.cfi_offset 6, -16
	movq	%rsp, %rbp
	.cfi_def_cfa_register 6
	movq	%rdi, -8(%rbp)
	.loc 2 40 0
	movl	v2(%rip), %eax
	cmpl	$456, %eax
	sete	%al
	.loc 2 41 0
	popq	%rbp
	.cfi_def_cfa 7, 8
	ret
	.cfi_endproc
.LFE2:
	.size	_ZN2C19testcase2Ev, .-_ZN2C19testcase2Ev
	.align 2
	.globl	_ZN2C19testcase3Ev
	.type	_ZN2C19testcase3Ev, @function
_ZN2C19testcase3Ev:
.LFB3:
	.loc 2 47 0
	.cfi_startproc
	pushq	%rbp
	.cfi_def_cfa_offset 16
	.cfi_offset 6, -16
	movq	%rsp, %rbp
	.cfi_def_cfa_register 6
	movq	%rdi, -8(%rbp)
	.loc 2 48 0
	movl	v3(%rip), %eax
	cmpl	$789, %eax
	sete	%al
	.loc 2 49 0
	popq	%rbp
	.cfi_def_cfa 7, 8
	ret
	.cfi_endproc
.LFE3:
	.size	_ZN2C19testcase3Ev, .-_ZN2C19testcase3Ev
	.align 2
	.globl	_ZN2C19testcase4Ev
	.type	_ZN2C19testcase4Ev, @function
_ZN2C19testcase4Ev:
.LFB4:
	.loc 2 55 0
	.cfi_startproc
	pushq	%rbp
	.cfi_def_cfa_offset 16
	.cfi_offset 6, -16
	movq	%rsp, %rbp
	.cfi_def_cfa_register 6
	movq	%rdi, -8(%rbp)
	.loc 2 56 0
	movzbl	v4+5(%rip), %eax
	cmpb	$44, %al
	sete	%al
	.loc 2 57 0
	popq	%rbp
	.cfi_def_cfa 7, 8
	ret
	.cfi_endproc
.LFE4:
	.size	_ZN2C19testcase4Ev, .-_ZN2C19testcase4Ev
	.align 2
	.globl	_ZN2C29testcase1Ev
	.type	_ZN2C29testcase1Ev, @function
_ZN2C29testcase1Ev:
.LFB5:
	.loc 2 63 0
	.cfi_startproc
	pushq	%rbp
	.cfi_def_cfa_offset 16
	.cfi_offset 6, -16
	movq	%rsp, %rbp
	.cfi_def_cfa_register 6
	movq	%rdi, -8(%rbp)
	.loc 2 64 0
	movzbl	v5+7(%rip), %eax
	cmpb	$119, %al
	sete	%al
	.loc 2 65 0
	popq	%rbp
	.cfi_def_cfa 7, 8
	ret
	.cfi_endproc
.LFE5:
	.size	_ZN2C29testcase1Ev, .-_ZN2C29testcase1Ev
	.globl	p6
	.data
	.align 8
	.type	p6, @object
	.size	p6, 8
p6:
	.quad	v2
	.text
	.align 2
	.globl	_ZN2C29testcase2Ev
	.type	_ZN2C29testcase2Ev, @function
_ZN2C29testcase2Ev:
.LFB6:
	.loc 2 73 0
	.cfi_startproc
	pushq	%rbp
	.cfi_def_cfa_offset 16
	.cfi_offset 6, -16
	movq	%rsp, %rbp
	.cfi_def_cfa_register 6
	movq	%rdi, -8(%rbp)
	.loc 2 74 0
	movq	p6(%rip), %rax
	movl	(%rax), %eax
	cmpl	$456, %eax
	sete	%al
	.loc 2 75 0
	popq	%rbp
	.cfi_def_cfa 7, 8
	ret
	.cfi_endproc
.LFE6:
	.size	_ZN2C29testcase2Ev, .-_ZN2C29testcase2Ev
	.globl	p7
	.data
	.align 8
	.type	p7, @object
	.size	p7, 8
p7:
	.quad	v3
	.text
	.align 2
	.globl	_ZN2C29testcase3Ev
	.type	_ZN2C29testcase3Ev, @function
_ZN2C29testcase3Ev:
.LFB7:
	.loc 2 83 0
	.cfi_startproc
	pushq	%rbp
	.cfi_def_cfa_offset 16
	.cfi_offset 6, -16
	movq	%rsp, %rbp
	.cfi_def_cfa_register 6
	movq	%rdi, -8(%rbp)
	.loc 2 84 0
	movq	p7(%rip), %rax
	movl	(%rax), %eax
	cmpl	$789, %eax
	sete	%al
	.loc 2 85 0
	popq	%rbp
	.cfi_def_cfa 7, 8
	ret
	.cfi_endproc
.LFE7:
	.size	_ZN2C29testcase3Ev, .-_ZN2C29testcase3Ev
	.globl	p8
	.data
	.align 8
	.type	p8, @object
	.size	p8, 8
p8:
	.quad	v4+6
	.text
	.align 2
	.globl	_ZN2C29testcase4Ev
	.type	_ZN2C29testcase4Ev, @function
_ZN2C29testcase4Ev:
.LFB8:
	.loc 2 93 0
	.cfi_startproc
	pushq	%rbp
	.cfi_def_cfa_offset 16
	.cfi_offset 6, -16
	movq	%rsp, %rbp
	.cfi_def_cfa_register 6
	movq	%rdi, -8(%rbp)
	.loc 2 94 0
	movq	p8(%rip), %rax
	movzbl	(%rax), %eax
	cmpb	$32, %al
	sete	%al
	.loc 2 95 0
	popq	%rbp
	.cfi_def_cfa 7, 8
	ret
	.cfi_endproc
.LFE8:
	.size	_ZN2C29testcase4Ev, .-_ZN2C29testcase4Ev
	.globl	p9
	.data
	.align 8
	.type	p9, @object
	.size	p9, 8
p9:
	.quad	v5+8
	.text
	.align 2
	.globl	_ZN2C39testcase1Ev
	.type	_ZN2C39testcase1Ev, @function
_ZN2C39testcase1Ev:
.LFB9:
	.loc 2 103 0
	.cfi_startproc
	pushq	%rbp
	.cfi_def_cfa_offset 16
	.cfi_offset 6, -16
	movq	%rsp, %rbp
	.cfi_def_cfa_register 6
	movq	%rdi, -8(%rbp)
	.loc 2 104 0
	movq	p9(%rip), %rax
	movzbl	(%rax), %eax
	cmpb	$111, %al
	sete	%al
	.loc 2 105 0
	popq	%rbp
	.cfi_def_cfa 7, 8
	ret
	.cfi_endproc
.LFE9:
	.size	_ZN2C39testcase1Ev, .-_ZN2C39testcase1Ev
	.globl	pfn
	.data
	.align 8
	.type	pfn, @object
	.size	pfn, 8
pfn:
	.quad	_Z3f10v
	.text
	.align 2
	.globl	_ZN2C39testcase2Ev
	.type	_ZN2C39testcase2Ev, @function
_ZN2C39testcase2Ev:
.LFB10:
	.loc 2 113 0
	.cfi_startproc
	pushq	%rbp
	.cfi_def_cfa_offset 16
	.cfi_offset 6, -16
	movq	%rsp, %rbp
	.cfi_def_cfa_register 6
	subq	$16, %rsp
	movq	%rdi, -8(%rbp)
	.loc 2 114 0
	movq	pfn(%rip), %rax
	call	*%rax
	cmpl	$135, %eax
	sete	%al
	.loc 2 115 0
	leave
	.cfi_def_cfa 7, 8
	ret
	.cfi_endproc
.LFE10:
	.size	_ZN2C39testcase2Ev, .-_ZN2C39testcase2Ev
	.globl	_Z4f11av
	.type	_Z4f11av, @function
_Z4f11av:
.LFB11:
	.loc 2 121 0
	.cfi_startproc
	pushq	%rbp
	.cfi_def_cfa_offset 16
	.cfi_offset 6, -16
	movq	%rsp, %rbp
	.cfi_def_cfa_register 6
	.loc 2 122 0
	movl	$246, %eax
	.loc 2 123 0
	popq	%rbp
	.cfi_def_cfa 7, 8
	ret
	.cfi_endproc
.LFE11:
	.size	_Z4f11av, .-_Z4f11av
	.align 2
	.globl	_ZN2C39testcase3Ev
	.type	_ZN2C39testcase3Ev, @function
_ZN2C39testcase3Ev:
.LFB12:
	.loc 2 127 0
	.cfi_startproc
	pushq	%rbp
	.cfi_def_cfa_offset 16
	.cfi_offset 6, -16
	movq	%rsp, %rbp
	.cfi_def_cfa_register 6
	subq	$16, %rsp
	movq	%rdi, -8(%rbp)
	.loc 2 128 0
	movl	$_Z4f11av, %edi
	call	_Z4f11bPFivE
	cmpl	$246, %eax
	sete	%al
	.loc 2 129 0
	leave
	.cfi_def_cfa 7, 8
	ret
	.cfi_endproc
.LFE12:
	.size	_ZN2C39testcase3Ev, .-_ZN2C39testcase3Ev
	.globl	_Z3t12v
	.type	_Z3t12v, @function
_Z3t12v:
.LFB13:
	.loc 2 135 0
	.cfi_startproc
	pushq	%rbp
	.cfi_def_cfa_offset 16
	.cfi_offset 6, -16
	movq	%rsp, %rbp
	.cfi_def_cfa_register 6
	.loc 2 136 0
	movl	$c3, %edi
	call	_ZN2C32f4Ev
	cmpq	$_Z3t12v, %rax
	sete	%al
	.loc 2 137 0
	popq	%rbp
	.cfi_def_cfa 7, 8
	ret
	.cfi_endproc
.LFE13:
	.size	_Z3t12v, .-_Z3t12v
	.globl	_Z3t13v
	.type	_Z3t13v, @function
_Z3t13v:
.LFB14:
	.loc 2 143 0
	.cfi_startproc
	pushq	%rbp
	.cfi_def_cfa_offset 16
	.cfi_offset 6, -16
	movq	%rsp, %rbp
	.cfi_def_cfa_register 6
	.loc 2 144 0
	call	_Z3f13v
	cmpq	$_Z4f13iv, %rax
	sete	%al
	.loc 2 145 0
	popq	%rbp
	.cfi_def_cfa 7, 8
	ret
	.cfi_endproc
.LFE14:
	.size	_Z3t13v, .-_Z3t13v
	.section	.rodata
.LC0:
	.string	"test string constant"
	.text
	.globl	_Z3t14v
	.type	_Z3t14v, @function
_Z3t14v:
.LFB15:
	.loc 2 151 0
	.cfi_startproc
	pushq	%rbp
	.cfi_def_cfa_offset 16
	.cfi_offset 6, -16
	movq	%rsp, %rbp
	.cfi_def_cfa_register 6
	subq	$16, %rsp
.LBB2:
	.loc 2 152 0
	movq	$.LC0, -8(%rbp)
	.loc 2 153 0
	call	_Z3f14v
	movq	%rax, -16(%rbp)
	.loc 2 154 0
	jmp	.L31
.L33:
	.loc 2 155 0
	movq	-8(%rbp), %rax
	movzbl	(%rax), %edx
	movq	-16(%rbp), %rax
	movzbl	(%rax), %eax
	cmpb	%al, %dl
	setne	%al
	addq	$1, -8(%rbp)
	addq	$1, -16(%rbp)
	testb	%al, %al
	je	.L31
	.loc 2 156 0
	movl	$0, %eax
	jmp	.L32
.L31:
	.loc 2 154 0 discriminator 1
	movq	-8(%rbp), %rax
	movzbl	(%rax), %eax
	testb	%al, %al
	setne	%al
	testb	%al, %al
	jne	.L33
	.loc 2 157 0
	movq	-16(%rbp), %rax
	movzbl	(%rax), %eax
	testb	%al, %al
	sete	%al
.L32:
.LBE2:
	.loc 2 158 0
	leave
	.cfi_def_cfa 7, 8
	ret
	.cfi_endproc
.LFE15:
	.size	_Z3t14v, .-_Z3t14v
	.section	.rodata
	.align 8
.LC1:
	.string	"t"
	.string	""
	.string	""
	.string	"e"
	.string	""
	.string	""
	.string	"s"
	.string	""
	.string	""
	.string	"t"
	.string	""
	.string	""
	.string	" "
	.string	""
	.string	""
	.string	"w"
	.string	""
	.string	""
	.string	"i"
	.string	""
	.string	""
	.string	"d"
	.string	""
	.string	""
	.string	"e"
	.string	""
	.string	""
	.string	" "
	.string	""
	.string	""
	.string	"s"
	.string	""
	.string	""
	.string	"t"
	.string	""
	.string	""
	.string	"r"
	.string	""
	.string	""
	.string	"i"
	.string	""
	.string	""
	.string	"n"
	.string	""
	.string	""
	.string	"g"
	.string	""
	.string	""
	.string	" "
	.string	""
	.string	""
	.string	"c"
	.string	""
	.string	""
	.string	"o"
	.string	""
	.string	""
	.string	"n"
	.string	""
	.string	""
	.string	"s"
	.string	""
	.string	""
	.string	"t"
	.string	""
	.string	""
	.string	"a"
	.string	""
	.string	""
	.string	"n"
	.string	""
	.string	""
	.string	"t"
	.string	""
	.string	""
	.string	""
	.string	""
	.string	""
	.string	""
	.text
	.globl	_Z3t15v
	.type	_Z3t15v, @function
_Z3t15v:
.LFB16:
	.loc 2 164 0
	.cfi_startproc
	pushq	%rbp
	.cfi_def_cfa_offset 16
	.cfi_offset 6, -16
	movq	%rsp, %rbp
	.cfi_def_cfa_register 6
	subq	$16, %rsp
.LBB3:
	.loc 2 165 0
	movq	$.LC1, -8(%rbp)
	.loc 2 166 0
	call	_Z3f15v
	movq	%rax, -16(%rbp)
	.loc 2 167 0
	jmp	.L35
.L37:
	.loc 2 168 0
	movq	-8(%rbp), %rax
	movl	(%rax), %edx
	movq	-16(%rbp), %rax
	movl	(%rax), %eax
	cmpl	%eax, %edx
	setne	%al
	addq	$4, -8(%rbp)
	addq	$4, -16(%rbp)
	testb	%al, %al
	je	.L35
	.loc 2 169 0
	movl	$0, %eax
	jmp	.L36
.L35:
	.loc 2 167 0 discriminator 1
	movq	-8(%rbp), %rax
	movl	(%rax), %eax
	testl	%eax, %eax
	setne	%al
	testb	%al, %al
	jne	.L37
	.loc 2 170 0
	movq	-16(%rbp), %rax
	movl	(%rax), %eax
	testl	%eax, %eax
	sete	%al
.L36:
.LBE3:
	.loc 2 171 0
	leave
	.cfi_def_cfa 7, 8
	ret
	.cfi_endproc
.LFE16:
	.size	_Z3t15v, .-_Z3t15v
	.globl	_Z3t16v
	.type	_Z3t16v, @function
_Z3t16v:
.LFB17:
	.loc 2 177 0
	.cfi_startproc
	pushq	%rbp
	.cfi_def_cfa_offset 16
	.cfi_offset 6, -16
	movq	%rsp, %rbp
	.cfi_def_cfa_register 6
	.loc 2 178 0
	call	_Z3f10v
	cmpl	$135, %eax
	sete	%al
	.loc 2 179 0
	popq	%rbp
	.cfi_def_cfa 7, 8
	ret
	.cfi_endproc
.LFE17:
	.size	_Z3t16v, .-_Z3t16v
	.globl	_Z3t17v
	.type	_Z3t17v, @function
_Z3t17v:
.LFB18:
	.loc 2 185 0
	.cfi_startproc
	pushq	%rbp
	.cfi_def_cfa_offset 16
	.cfi_offset 6, -16
	movq	%rsp, %rbp
	.cfi_def_cfa_register 6
.LBB4:
	.loc 2 186 0
	movb	$97, -1(%rbp)
.LBB5:
	.loc 2 187 0
	movl	$0, -8(%rbp)
	jmp	.L41
.L45:
	.loc 2 189 0
	movl	-8(%rbp), %eax
	cltq
	movq	t17data(,%rax,8), %rax
	movzbl	(%rax), %eax
	cmpb	-1(%rbp), %al
	jne	.L42
	.loc 2 189 0 is_stmt 0 discriminator 1
	movl	-8(%rbp), %eax
	cltq
	movq	t17data(,%rax,8), %rax
	addq	$1, %rax
	movzbl	(%rax), %eax
	testb	%al, %al
	je	.L43
.L42:
	.loc 2 190 0 is_stmt 1
	movl	$0, %eax
	jmp	.L44
.L43:
	.loc 2 191 0
	addb	$1, -1(%rbp)
	.loc 2 187 0
	addl	$1, -8(%rbp)
.L41:
	.loc 2 187 0 is_stmt 0 discriminator 1
	cmpl	$4, -8(%rbp)
	setle	%al
	testb	%al, %al
	jne	.L45
.LBE5:
	.loc 2 193 0 is_stmt 1
	movl	$1, %eax
.L44:
.LBE4:
	.loc 2 194 0
	popq	%rbp
	.cfi_def_cfa 7, 8
	ret
	.cfi_endproc
.LFE18:
	.size	_Z3t17v, .-_Z3t17v
	.globl	_Z3t18v
	.type	_Z3t18v, @function
_Z3t18v:
.LFB19:
	.loc 2 200 0
	.cfi_startproc
	pushq	%rbp
	.cfi_def_cfa_offset 16
	.cfi_offset 6, -16
	movq	%rsp, %rbp
	.cfi_def_cfa_register 6
	subq	$16, %rsp
.LBB6:
	.loc 2 201 0
	movb	$97, -1(%rbp)
.LBB7:
	.loc 2 202 0
	movl	$0, -8(%rbp)
	jmp	.L47
.L51:
.LBB8:
	.loc 2 204 0
	movl	-8(%rbp), %eax
	movl	%eax, %edi
	call	_Z3f18i
	movq	%rax, -16(%rbp)
	.loc 2 205 0
	movq	-16(%rbp), %rax
	movzbl	(%rax), %eax
	cmpb	-1(%rbp), %al
	jne	.L48
	.loc 2 205 0 is_stmt 0 discriminator 1
	movq	-16(%rbp), %rax
	addq	$1, %rax
	movzbl	(%rax), %eax
	testb	%al, %al
	je	.L49
.L48:
	.loc 2 206 0 is_stmt 1
	movl	$0, %eax
	jmp	.L50
.L49:
	.loc 2 207 0
	addb	$1, -1(%rbp)
.LBE8:
	.loc 2 202 0
	addl	$1, -8(%rbp)
.L47:
	.loc 2 202 0 is_stmt 0 discriminator 1
	cmpl	$4, -8(%rbp)
	setle	%al
	testb	%al, %al
	jne	.L51
.LBE7:
	.loc 2 209 0 is_stmt 1
	movl	$1, %eax
.L50:
.LBE6:
	.loc 2 210 0
	leave
	.cfi_def_cfa 7, 8
	ret
	.cfi_endproc
.LFE19:
	.size	_Z3t18v, .-_Z3t18v
.Letext0:
	.section	.note.GNU-stack,"",@progbits
