	.file	"dwp_test_2.cc"
	.text
.Ltext0:
	.section	.text._Z4f13iv,"axG",@progbits,_Z4f13iv,comdat
	.weak	_Z4f13iv
	.type	_Z4f13iv, @function
_Z4f13iv:
.LFB0:
	.file 1 "dwp_test.h"
	.loc 1 70 0
	.cfi_startproc
	pushq	%rbp
	.cfi_def_cfa_offset 16
	.cfi_offset 6, -16
	movq	%rsp, %rbp
	.cfi_def_cfa_register 6
	.loc 1 70 0
	popq	%rbp
	.cfi_def_cfa 7, 8
	ret
	.cfi_endproc
.LFE0:
	.size	_Z4f13iv, .-_Z4f13iv
	.text
	.align 2
	.globl	_ZN2C14t1_2Ev
	.type	_ZN2C14t1_2Ev, @function
_ZN2C14t1_2Ev:
.LFB1:
	.file 2 "dwp_test_2.cc"
	.loc 2 31 0
	.cfi_startproc
	pushq	%rbp
	.cfi_def_cfa_offset 16
	.cfi_offset 6, -16
	movq	%rsp, %rbp
	.cfi_def_cfa_register 6
	movq	%rdi, -8(%rbp)
	.loc 2 32 0
	movl	$123, %eax
	.loc 2 33 0
	popq	%rbp
	.cfi_def_cfa 7, 8
	ret
	.cfi_endproc
.LFE1:
	.size	_ZN2C14t1_2Ev, .-_ZN2C14t1_2Ev
	.align 2
	.globl	_ZN2C13t1aEv
	.type	_ZN2C13t1aEv, @function
_ZN2C13t1aEv:
.LFB2:
	.loc 2 37 0
	.cfi_startproc
	pushq	%rbp
	.cfi_def_cfa_offset 16
	.cfi_offset 6, -16
	movq	%rsp, %rbp
	.cfi_def_cfa_register 6
	subq	$8, %rsp
	movq	%rdi, -8(%rbp)
	.loc 2 38 0
	movq	-8(%rbp), %rax
	movq	%rax, %rdi
	call	_ZN2C14t1_2Ev
	cmpl	$123, %eax
	sete	%al
	.loc 2 39 0
	leave
	.cfi_def_cfa 7, 8
	ret
	.cfi_endproc
.LFE2:
	.size	_ZN2C13t1aEv, .-_ZN2C13t1aEv
	.globl	v2
	.data
	.align 4
	.type	v2, @object
	.size	v2, 4
v2:
	.long	456
	.globl	v3
	.bss
	.align 4
	.type	v3, @object
	.size	v3, 4
v3:
	.zero	4
	.globl	v4
	.data
	.type	v4, @object
	.size	v4, 13
v4:
	.string	"Hello, world"
	.globl	v5
	.bss
	.type	v5, @object
	.size	v5, 13
v5:
	.zero	13
	.text
	.globl	_Z3f10v
	.type	_Z3f10v, @function
_Z3f10v:
.LFB3:
	.loc 2 73 0
	.cfi_startproc
	pushq	%rbp
	.cfi_def_cfa_offset 16
	.cfi_offset 6, -16
	movq	%rsp, %rbp
	.cfi_def_cfa_register 6
	.loc 2 74 0
	movl	$135, %eax
	.loc 2 75 0
	popq	%rbp
	.cfi_def_cfa 7, 8
	ret
	.cfi_endproc
.LFE3:
	.size	_Z3f10v, .-_Z3f10v
	.globl	_Z4f11bPFivE
	.type	_Z4f11bPFivE, @function
_Z4f11bPFivE:
.LFB4:
	.loc 2 81 0
	.cfi_startproc
	pushq	%rbp
	.cfi_def_cfa_offset 16
	.cfi_offset 6, -16
	movq	%rsp, %rbp
	.cfi_def_cfa_register 6
	subq	$16, %rsp
	movq	%rdi, -8(%rbp)
	.loc 2 82 0
	movq	-8(%rbp), %rax
	call	*%rax
	.loc 2 83 0
	leave
	.cfi_def_cfa 7, 8
	ret
	.cfi_endproc
.LFE4:
	.size	_Z4f11bPFivE, .-_Z4f11bPFivE
	.align 2
	.globl	_ZN2C32f4Ev
	.type	_ZN2C32f4Ev, @function
_ZN2C32f4Ev:
.LFB5:
	.loc 2 89 0
	.cfi_startproc
	pushq	%rbp
	.cfi_def_cfa_offset 16
	.cfi_offset 6, -16
	movq	%rsp, %rbp
	.cfi_def_cfa_register 6
	movq	%rdi, -8(%rbp)
	.loc 2 90 0
	movl	$_Z3t12v, %eax
	.loc 2 91 0
	popq	%rbp
	.cfi_def_cfa 7, 8
	ret
	.cfi_endproc
.LFE5:
	.size	_ZN2C32f4Ev, .-_ZN2C32f4Ev
	.globl	_Z3f13v
	.type	_Z3f13v, @function
_Z3f13v:
.LFB6:
	.loc 2 97 0
	.cfi_startproc
	pushq	%rbp
	.cfi_def_cfa_offset 16
	.cfi_offset 6, -16
	movq	%rsp, %rbp
	.cfi_def_cfa_register 6
	.loc 2 98 0
	movl	$_Z4f13iv, %eax
	.loc 2 99 0
	popq	%rbp
	.cfi_def_cfa 7, 8
	ret
	.cfi_endproc
.LFE6:
	.size	_Z3f13v, .-_Z3f13v
	.section	.rodata
.LC0:
	.string	"test string constant"
	.text
	.globl	_Z3f14v
	.type	_Z3f14v, @function
_Z3f14v:
.LFB7:
	.loc 2 105 0
	.cfi_startproc
	pushq	%rbp
	.cfi_def_cfa_offset 16
	.cfi_offset 6, -16
	movq	%rsp, %rbp
	.cfi_def_cfa_register 6
	.loc 2 106 0
	movl	$.LC0, %eax
	.loc 2 107 0
	popq	%rbp
	.cfi_def_cfa 7, 8
	ret
	.cfi_endproc
.LFE7:
	.size	_Z3f14v, .-_Z3f14v
	.section	.rodata
	.align 8
.LC1:
	.string	"t"
	.string	""
	.string	""
	.string	"e"
	.string	""
	.string	""
	.string	"s"
	.string	""
	.string	""
	.string	"t"
	.string	""
	.string	""
	.string	" "
	.string	""
	.string	""
	.string	"w"
	.string	""
	.string	""
	.string	"i"
	.string	""
	.string	""
	.string	"d"
	.string	""
	.string	""
	.string	"e"
	.string	""
	.string	""
	.string	" "
	.string	""
	.string	""
	.string	"s"
	.string	""
	.string	""
	.string	"t"
	.string	""
	.string	""
	.string	"r"
	.string	""
	.string	""
	.string	"i"
	.string	""
	.string	""
	.string	"n"
	.string	""
	.string	""
	.string	"g"
	.string	""
	.string	""
	.string	" "
	.string	""
	.string	""
	.string	"c"
	.string	""
	.string	""
	.string	"o"
	.string	""
	.string	""
	.string	"n"
	.string	""
	.string	""
	.string	"s"
	.string	""
	.string	""
	.string	"t"
	.string	""
	.string	""
	.string	"a"
	.string	""
	.string	""
	.string	"n"
	.string	""
	.string	""
	.string	"t"
	.string	""
	.string	""
	.string	""
	.string	""
	.string	""
	.string	""
	.text
	.globl	_Z3f15v
	.type	_Z3f15v, @function
_Z3f15v:
.LFB8:
	.loc 2 113 0
	.cfi_startproc
	pushq	%rbp
	.cfi_def_cfa_offset 16
	.cfi_offset 6, -16
	movq	%rsp, %rbp
	.cfi_def_cfa_register 6
	.loc 2 114 0
	movl	$.LC1, %eax
	.loc 2 115 0
	popq	%rbp
	.cfi_def_cfa 7, 8
	ret
	.cfi_endproc
.LFE8:
	.size	_Z3f15v, .-_Z3f15v
	.globl	t17data
	.section	.rodata
.LC2:
	.string	"a"
.LC3:
	.string	"b"
.LC4:
	.string	"c"
.LC5:
	.string	"d"
.LC6:
	.string	"e"
	.data
	.align 32
	.type	t17data, @object
	.size	t17data, 40
t17data:
	.quad	.LC2
	.quad	.LC3
	.quad	.LC4
	.quad	.LC5
	.quad	.LC6
	.text
	.globl	_Z3f18i
	.type	_Z3f18i, @function
_Z3f18i:
.LFB9:
	.loc 2 128 0
	.cfi_startproc
	pushq	%rbp
	.cfi_def_cfa_offset 16
	.cfi_offset 6, -16
	movq	%rsp, %rbp
	.cfi_def_cfa_register 6
	movl	%edi, -4(%rbp)
	.loc 2 129 0
	cmpl	$4, -4(%rbp)
	ja	.L19
	movl	-4(%rbp), %eax
	movq	.L25(,%rax,8), %rax
	jmp	*%rax
	.section	.rodata
	.align 8
	.align 4
.L25:
	.quad	.L20
	.quad	.L21
	.quad	.L22
	.quad	.L23
	.quad	.L24
	.text
.L20:
	.loc 2 132 0
	movl	$.LC2, %eax
	jmp	.L26
.L21:
	.loc 2 134 0
	movl	$.LC3, %eax
	jmp	.L26
.L22:
	.loc 2 136 0
	movl	$.LC4, %eax
	jmp	.L26
.L23:
	.loc 2 138 0
	movl	$.LC5, %eax
	jmp	.L26
.L24:
	.loc 2 140 0
	movl	$.LC6, %eax
	jmp	.L26
.L19:
	.loc 2 142 0
	movl	$0, %eax
.L26:
	.loc 2 144 0
	popq	%rbp
	.cfi_def_cfa 7, 8
	ret
	.cfi_endproc
.LFE9:
	.size	_Z3f18i, .-_Z3f18i
.Letext0:
	.section	.note.GNU-stack,"",@progbits
