	.file	"nopic-local.c"
	.text
.Ltext0:
	.file 1 "nopic-local.c"
	.globl	g_nopic
	.data
	.align	2
	.type	g_nopic, @object
	.size	g_nopic, 4
g_nopic:
	.word	305419896
	.section	.rodata
	.align	3
.LC0:
	.ascii	"0x%x\012\000"
	.text
	.align	2
	.globl	main
	.type	main, @function
main:
.LFB6 = .
	.loc 1 7 1
	.cfi_startproc
	addi.d	$r3,$r3,-16
	.cfi_def_cfa_offset 16
	st.d	$r1,$r3,8
	stptr.d	$r22,$r3,0
	.cfi_offset 1, -8
	.cfi_offset 22, -16
	addi.d	$r22,$r3,16
	.cfi_def_cfa 22, 0
	.loc 1 8 15
	pcalau12i	$r12,%pc_hi20(g_nopic)
	addi.d	$r12,$r12,%pc_lo12(g_nopic)
	ldptr.w	$r12,$r12,0
	.loc 1 8 6
	or	$r13,$r12,$r0
	lu12i.w	$r12,305418240>>12			# 0x12345000
	ori	$r12,$r12,1656
	bne	$r13,$r12,.L2
	.loc 1 9 5
	pcalau12i	$r12,%pc_hi20(g_nopic)
	addi.d	$r12,$r12,%pc_lo12(g_nopic)
	ldptr.w	$r12,$r12,0
	or	$r5,$r12,$r0
	pcalau12i	$r12,%pc_hi20(.LC0)
	addi.d	$r4,$r12,%pc_lo12(.LC0)
	bl	%plt(printf)
	b	.L5
.L2:
	.loc 1 11 5
	bl	%plt(abort)
.L5:
	.loc 1 12 10
	or	$r12,$r0,$r0
	.loc 1 13 1
	or	$r4,$r12,$r0
	ld.d	$r1,$r3,8
	.cfi_restore 1
	ldptr.d	$r22,$r3,0
	.cfi_restore 22
	addi.d	$r3,$r3,16
	.cfi_def_cfa_register 3
	jr	$r1
	.cfi_endproc
.LFE6:
	.size	main, .-main
.Letext0:
	.file 2 "/usr/include/stdlib.h"
	.file 3 "/usr/include/stdio.h"
	.section	.note.GNU-stack,"",@progbits
